target datalayout = "e-m:e-p270:32:32-p271:32:32-p272:64:64-i64:64-i128:128-f80:128-n8:16:32:64-S128"
target triple = "x86_64-pc-linux-gnu"

%struct.AVFilterContext = type { ptr, ptr, ptr, ptr, ptr, i32, ptr, ptr, i32, ptr, ptr, i32, i32, ptr, ptr, ptr, ptr, i32, ptr, i32, i32 }
%struct.HueContext = type { ptr, float, float, ptr, ptr, ptr, ptr, float, ptr, ptr, float, ptr, ptr, i32, i32, i32, i32, i32, [5 x double], [256 x i8], [256 x [256 x i8]], [256 x [256 x i8]], [65536 x i16], [1024 x [1024 x i16]], [1024 x [1024 x i16]] }

@.str.7 = private unnamed_addr constant [2 x i8] c"h\00", align 1
@.str.9 = private unnamed_addr constant [2 x i8] c"s\00", align 1
@.str.12 = private unnamed_addr constant [2 x i8] c"H\00", align 1
@.str.14 = private unnamed_addr constant [2 x i8] c"b\00", align 1

; Function Attrs: nounwind uwtable
define internal i32 @process_command(ptr noundef %0, ptr noundef %1, ptr noundef %2, ptr noundef %3, i32 noundef %4, i32 noundef %5) #1 {
  %7 = alloca i32, align 4
  %8 = alloca ptr, align 8
  %9 = alloca ptr, align 8
  %10 = alloca ptr, align 8
  %11 = alloca ptr, align 8
  %12 = alloca i32, align 4
  %13 = alloca i32, align 4
  %14 = alloca ptr, align 8
  %15 = alloca i32, align 4
  %16 = alloca i32, align 4
  store ptr %0, ptr %8, align 8, !tbaa !4
  store ptr %1, ptr %9, align 8, !tbaa !37
  store ptr %2, ptr %10, align 8, !tbaa !37
  store ptr %3, ptr %11, align 8, !tbaa !37
  store i32 %4, ptr %12, align 4, !tbaa !30
  store i32 %5, ptr %13, align 4, !tbaa !30
  call void @llvm.lifetime.start.p0(i64 8, ptr %14) #9
  %17 = load ptr, ptr %8, align 8, !tbaa !4
  %18 = getelementptr inbounds nuw %struct.AVFilterContext, ptr %17, i32 0, i32 9
  %19 = load ptr, ptr %18, align 8, !tbaa !9
  store ptr %19, ptr %14, align 8, !tbaa !22
  call void @llvm.lifetime.start.p0(i64 4, ptr %15) #9
  %20 = load ptr, ptr %9, align 8, !tbaa !37
  %21 = call i32 @strcmp(ptr noundef %20, ptr noundef @.str.7) #10
  %22 = icmp ne i32 %21, 0
  br i1 %22, label %41, label %23

23:                                               ; preds = %6
  br label %24

24:                                               ; preds = %23
  %25 = load ptr, ptr %14, align 8, !tbaa !22
  %26 = getelementptr inbounds nuw %struct.HueContext, ptr %25, i32 0, i32 5
  %27 = load ptr, ptr %14, align 8, !tbaa !22
  %28 = getelementptr inbounds nuw %struct.HueContext, ptr %27, i32 0, i32 3
  %29 = load ptr, ptr %10, align 8, !tbaa !37
  %30 = load ptr, ptr %8, align 8, !tbaa !4
  %31 = call i32 @set_expr(ptr noundef %26, ptr noundef %28, ptr noundef %29, ptr noundef @.str.7, ptr noundef %30)
  store i32 %31, ptr %15, align 4, !tbaa !30
  %32 = load i32, ptr %15, align 4, !tbaa !30
  %33 = icmp slt i32 %32, 0
  br i1 %33, label %34, label %36

34:                                               ; preds = %24
  %35 = load i32, ptr %15, align 4, !tbaa !30
  store i32 %35, ptr %7, align 4
  store i32 1, ptr %16, align 4
  br label %108

36:                                               ; preds = %24
  br label %37

37:                                               ; preds = %36
  br label %38

38:                                               ; preds = %37
  %39 = load ptr, ptr %14, align 8, !tbaa !22
  %40 = getelementptr inbounds nuw %struct.HueContext, ptr %39, i32 0, i32 4
  call void @av_freep(ptr noundef %40)
  br label %107

41:                                               ; preds = %6
  %42 = load ptr, ptr %9, align 8, !tbaa !37
  %43 = call i32 @strcmp(ptr noundef %42, ptr noundef @.str.12) #10
  %44 = icmp ne i32 %43, 0
  br i1 %44, label %63, label %45

45:                                               ; preds = %41
  br label %46

46:                                               ; preds = %45
  %47 = load ptr, ptr %14, align 8, !tbaa !22
  %48 = getelementptr inbounds nuw %struct.HueContext, ptr %47, i32 0, i32 6
  %49 = load ptr, ptr %14, align 8, !tbaa !22
  %50 = getelementptr inbounds nuw %struct.HueContext, ptr %49, i32 0, i32 4
  %51 = load ptr, ptr %10, align 8, !tbaa !37
  %52 = load ptr, ptr %8, align 8, !tbaa !4
  %53 = call i32 @set_expr(ptr noundef %48, ptr noundef %50, ptr noundef %51, ptr noundef @.str.12, ptr noundef %52)
  store i32 %53, ptr %15, align 4, !tbaa !30
  %54 = load i32, ptr %15, align 4, !tbaa !30
  %55 = icmp slt i32 %54, 0
  br i1 %55, label %56, label %58

56:                                               ; preds = %46
  %57 = load i32, ptr %15, align 4, !tbaa !30
  store i32 %57, ptr %7, align 4
  store i32 1, ptr %16, align 4
  br label %108

58:                                               ; preds = %46
  br label %59

59:                                               ; preds = %58
  br label %60

60:                                               ; preds = %59
  %61 = load ptr, ptr %14, align 8, !tbaa !22
  %62 = getelementptr inbounds nuw %struct.HueContext, ptr %61, i32 0, i32 3
  call void @av_freep(ptr noundef %62)
  br label %106

63:                                               ; preds = %41
  %64 = load ptr, ptr %9, align 8, !tbaa !37
  %65 = call i32 @strcmp(ptr noundef %64, ptr noundef @.str.9) #10
  %66 = icmp ne i32 %65, 0
  br i1 %66, label %83, label %67

67:                                               ; preds = %63
  br label %68

68:                                               ; preds = %67
  %69 = load ptr, ptr %14, align 8, !tbaa !22
  %70 = getelementptr inbounds nuw %struct.HueContext, ptr %69, i32 0, i32 9
  %71 = load ptr, ptr %14, align 8, !tbaa !22
  %72 = getelementptr inbounds nuw %struct.HueContext, ptr %71, i32 0, i32 8
  %73 = load ptr, ptr %10, align 8, !tbaa !37
  %74 = load ptr, ptr %8, align 8, !tbaa !4
  %75 = call i32 @set_expr(ptr noundef %70, ptr noundef %72, ptr noundef %73, ptr noundef @.str.9, ptr noundef %74)
  store i32 %75, ptr %15, align 4, !tbaa !30
  %76 = load i32, ptr %15, align 4, !tbaa !30
  %77 = icmp slt i32 %76, 0
  br i1 %77, label %78, label %80

78:                                               ; preds = %68
  %79 = load i32, ptr %15, align 4, !tbaa !30
  store i32 %79, ptr %7, align 4
  store i32 1, ptr %16, align 4
  br label %108

80:                                               ; preds = %68
  br label %81

81:                                               ; preds = %80
  br label %82

82:                                               ; preds = %81
  br label %105

83:                                               ; preds = %63
  %84 = load ptr, ptr %9, align 8, !tbaa !37
  %85 = call i32 @strcmp(ptr noundef %84, ptr noundef @.str.14) #10
  %86 = icmp ne i32 %85, 0
  br i1 %86, label %103, label %87

87:                                               ; preds = %83
  br label %88

88:                                               ; preds = %87
  %89 = load ptr, ptr %14, align 8, !tbaa !22
  %90 = getelementptr inbounds nuw %struct.HueContext, ptr %89, i32 0, i32 12
  %91 = load ptr, ptr %14, align 8, !tbaa !22
  %92 = getelementptr inbounds nuw %struct.HueContext, ptr %91, i32 0, i32 11
  %93 = load ptr, ptr %10, align 8, !tbaa !37
  %94 = load ptr, ptr %8, align 8, !tbaa !4
  %95 = call i32 @set_expr(ptr noundef %90, ptr noundef %92, ptr noundef %93, ptr noundef @.str.14, ptr noundef %94)
  store i32 %95, ptr %15, align 4, !tbaa !30
  %96 = load i32, ptr %15, align 4, !tbaa !30
  %97 = icmp slt i32 %96, 0
  br i1 %97, label %98, label %100

98:                                               ; preds = %88
  %99 = load i32, ptr %15, align 4, !tbaa !30
  store i32 %99, ptr %7, align 4
  store i32 1, ptr %16, align 4
  br label %108

100:                                              ; preds = %88
  br label %101

101:                                              ; preds = %100
  br label %102

102:                                              ; preds = %101
  br label %104

103:                                              ; preds = %83
  store i32 -38, ptr %7, align 4
  store i32 1, ptr %16, align 4
  br label %108

104:                                              ; preds = %102
  br label %105

105:                                              ; preds = %104, %82
  br label %106

106:                                              ; preds = %105, %60
  br label %107

107:                                              ; preds = %106, %38
  store i32 0, ptr %7, align 4
  store i32 1, ptr %16, align 4
  br label %108

108:                                              ; preds = %107, %103, %98, %78, %56, %34
  call void @llvm.lifetime.end.p0(i64 4, ptr %15) #9
  call void @llvm.lifetime.end.p0(i64 8, ptr %14) #9
  %109 = load i32, ptr %7, align 4
  ret i32 %109
}