; Function Attrs: nounwind uwtable
define internal range(i32 -2147483648, 1) i32 @process_command(ptr noundef %0, ptr noundef readonly captures(none) %1, ptr noundef %2, ptr readnone captures(none) %3, i32 %4, i32 %5) #1 {
sub_0:
  %6 = getelementptr inbounds nuw i8, ptr %0, i64 72
  %7 = load ptr, ptr %6, align 8, !tbaa !4
  %8 = load i8, ptr %1, align 1
  switch i8 %8, label %.tail46.thread [
    i8 104, label %.tail
    i8 72, label %.tail38
    i8 115, label %.tail42
    i8 98, label %.tail46
  ]

.tail:                                            ; preds = %sub_0
  %9 = getelementptr inbounds nuw i8, ptr %1, i64 1
  %10 = load i8, ptr %9, align 1
  %11 = icmp eq i8 %10, 0
  br i1 %11, label %12, label %.tail46.thread

12:                                               ; preds = %.tail
  %13 = getelementptr inbounds nuw i8, ptr %7, i64 32
  %14 = getelementptr inbounds nuw i8, ptr %7, i64 16
  %15 = tail call fastcc i32 @set_expr(ptr noundef nonnull %13, ptr noundef nonnull %14, ptr noundef %2, ptr noundef nonnull @.str.7, ptr noundef nonnull %0)
  %16 = icmp slt i32 %15, 0
  br i1 %16, label %.tail46.thread, label %.sink.split

.tail38:                                          ; preds = %sub_0
  %17 = getelementptr inbounds nuw i8, ptr %1, i64 1
  %18 = load i8, ptr %17, align 1
  %19 = icmp eq i8 %18, 0
  br i1 %19, label %20, label %.tail46.thread

20:                                               ; preds = %.tail38
  %21 = getelementptr inbounds nuw i8, ptr %7, i64 40
  %22 = getelementptr inbounds nuw i8, ptr %7, i64 24
  %23 = tail call fastcc i32 @set_expr(ptr noundef nonnull %21, ptr noundef nonnull %22, ptr noundef %2, ptr noundef nonnull @.str.12, ptr noundef nonnull %0)
  %24 = icmp slt i32 %23, 0
  br i1 %24, label %.tail46.thread, label %.sink.split

.tail42:                                          ; preds = %sub_0
  %25 = getelementptr inbounds nuw i8, ptr %1, i64 1
  %26 = load i8, ptr %25, align 1
  %27 = icmp eq i8 %26, 0
  br i1 %27, label %28, label %.tail46.thread

28:                                               ; preds = %.tail42
  %29 = getelementptr inbounds nuw i8, ptr %7, i64 64
  %30 = getelementptr inbounds nuw i8, ptr %7, i64 56
  %31 = tail call fastcc i32 @set_expr(ptr noundef nonnull %29, ptr noundef nonnull %30, ptr noundef %2, ptr noundef nonnull @.str.9, ptr noundef nonnull %0)
  %32 = icmp slt i32 %31, 0
  br i1 %32, label %.tail46.thread, label %42

.tail46:                                          ; preds = %sub_0
  %33 = getelementptr inbounds nuw i8, ptr %1, i64 1
  %34 = load i8, ptr %33, align 1
  %35 = icmp eq i8 %34, 0
  br i1 %35, label %36, label %.tail46.thread

36:                                               ; preds = %.tail46
  %37 = getelementptr inbounds nuw i8, ptr %7, i64 88
  %38 = getelementptr inbounds nuw i8, ptr %7, i64 80
  %39 = tail call fastcc i32 @set_expr(ptr noundef nonnull %37, ptr noundef nonnull %38, ptr noundef %2, ptr noundef nonnull @.str.14, ptr noundef nonnull %0)
  %40 = icmp slt i32 %39, 0
  br i1 %40, label %.tail46.thread, label %42

.sink.split:                                      ; preds = %20, %12
  %.sink65 = phi i64 [ 24, %12 ], [ 16, %20 ]
  %41 = getelementptr inbounds nuw i8, ptr %7, i64 %.sink65
  tail call void @av_freep(ptr noundef nonnull %41) #6
  br label %42

42:                                               ; preds = %.sink.split, %36, %28
  br label %.tail46.thread

.tail46.thread:                                   ; preds = %sub_0, %.tail38, %.tail, %.tail42, %.tail46, %36, %28, %20, %12, %42
  %.0 = phi i32 [ 0, %42 ], [ %15, %12 ], [ %23, %20 ], [ %31, %28 ], [ %39, %36 ], [ -38, %.tail46 ], [ -38, %.tail42 ], [ -38, %.tail ], [ -38, %.tail38 ], [ -38, %sub_0 ]
  ret i32 %.0
}